
_cat:     file format elf32-i386


Disassembly of section .text:

00000000 <main>:
  }
}

int
main(int argc, char *argv[])
{
   0:	8d 4c 24 04          	lea    0x4(%esp),%ecx
   4:	83 e4 f0             	and    $0xfffffff0,%esp
   7:	ff 71 fc             	pushl  -0x4(%ecx)
   a:	55                   	push   %ebp
   b:	89 e5                	mov    %esp,%ebp
   d:	57                   	push   %edi
   e:	56                   	push   %esi
   f:	53                   	push   %ebx
  10:	51                   	push   %ecx
  11:	be 01 00 00 00       	mov    $0x1,%esi
  16:	83 ec 18             	sub    $0x18,%esp
  19:	8b 01                	mov    (%ecx),%eax
  1b:	8b 59 04             	mov    0x4(%ecx),%ebx
  1e:	83 c3 04             	add    $0x4,%ebx
  int fd, i;

  if(argc <= 1){
  21:	83 f8 01             	cmp    $0x1,%eax
  }
}

int
main(int argc, char *argv[])
{
  24:	89 45 e4             	mov    %eax,-0x1c(%ebp)
  int fd, i;

  if(argc <= 1){
  27:	7e 54                	jle    7d <main+0x7d>
  29:	8d b4 26 00 00 00 00 	lea    0x0(%esi,%eiz,1),%esi
    cat(0);
    exit();
  }

  for(i = 1; i < argc; i++){
    if((fd = open(argv[i], 0)) < 0){
  30:	83 ec 08             	sub    $0x8,%esp
  33:	6a 00                	push   $0x0
  35:	ff 33                	pushl  (%ebx)
  37:	e8 56 03 00 00       	call   392 <open>
  3c:	83 c4 10             	add    $0x10,%esp
  3f:	85 c0                	test   %eax,%eax
  41:	89 c7                	mov    %eax,%edi
  43:	78 24                	js     69 <main+0x69>
      printf(1, "cat: cannot open %s\n", argv[i]);
      exit();
    }
    cat(fd);
  45:	83 ec 0c             	sub    $0xc,%esp
  if(argc <= 1){
    cat(0);
    exit();
  }

  for(i = 1; i < argc; i++){
  48:	83 c6 01             	add    $0x1,%esi
  4b:	83 c3 04             	add    $0x4,%ebx
    if((fd = open(argv[i], 0)) < 0){
      printf(1, "cat: cannot open %s\n", argv[i]);
      exit();
    }
    cat(fd);
  4e:	50                   	push   %eax
  4f:	e8 3c 00 00 00       	call   90 <cat>
    close(fd);
  54:	89 3c 24             	mov    %edi,(%esp)
  57:	e8 1e 03 00 00       	call   37a <close>
  if(argc <= 1){
    cat(0);
    exit();
  }

  for(i = 1; i < argc; i++){
  5c:	83 c4 10             	add    $0x10,%esp
  5f:	39 75 e4             	cmp    %esi,-0x1c(%ebp)
  62:	75 cc                	jne    30 <main+0x30>
      exit();
    }
    cat(fd);
    close(fd);
  }
  exit();
  64:	e8 e9 02 00 00       	call   352 <exit>
    exit();
  }

  for(i = 1; i < argc; i++){
    if((fd = open(argv[i], 0)) < 0){
      printf(1, "cat: cannot open %s\n", argv[i]);
  69:	50                   	push   %eax
  6a:	ff 33                	pushl  (%ebx)
  6c:	68 df 0c 00 00       	push   $0xcdf
  71:	6a 01                	push   $0x1
  73:	e8 48 04 00 00       	call   4c0 <printf>
      exit();
  78:	e8 d5 02 00 00       	call   352 <exit>
main(int argc, char *argv[])
{
  int fd, i;

  if(argc <= 1){
    cat(0);
  7d:	83 ec 0c             	sub    $0xc,%esp
  80:	6a 00                	push   $0x0
  82:	e8 09 00 00 00       	call   90 <cat>
    exit();
  87:	e8 c6 02 00 00       	call   352 <exit>
  8c:	66 90                	xchg   %ax,%ax
  8e:	66 90                	xchg   %ax,%ax

00000090 <cat>:

char buf[512];

void
cat(int fd)
{
  90:	55                   	push   %ebp
  91:	89 e5                	mov    %esp,%ebp
  93:	56                   	push   %esi
  94:	53                   	push   %ebx
  95:	8b 75 08             	mov    0x8(%ebp),%esi
  int n;

  while((n = read(fd, buf, sizeof(buf))) > 0) {
  98:	eb 1d                	jmp    b7 <cat+0x27>
  9a:	8d b6 00 00 00 00    	lea    0x0(%esi),%esi
    if (write(1, buf, n) != n) {
  a0:	83 ec 04             	sub    $0x4,%esp
  a3:	53                   	push   %ebx
  a4:	68 e0 11 00 00       	push   $0x11e0
  a9:	6a 01                	push   $0x1
  ab:	e8 c2 02 00 00       	call   372 <write>
  b0:	83 c4 10             	add    $0x10,%esp
  b3:	39 c3                	cmp    %eax,%ebx
  b5:	75 26                	jne    dd <cat+0x4d>
void
cat(int fd)
{
  int n;

  while((n = read(fd, buf, sizeof(buf))) > 0) {
  b7:	83 ec 04             	sub    $0x4,%esp
  ba:	68 00 02 00 00       	push   $0x200
  bf:	68 e0 11 00 00       	push   $0x11e0
  c4:	56                   	push   %esi
  c5:	e8 a0 02 00 00       	call   36a <read>
  ca:	83 c4 10             	add    $0x10,%esp
  cd:	83 f8 00             	cmp    $0x0,%eax
  d0:	89 c3                	mov    %eax,%ebx
  d2:	7f cc                	jg     a0 <cat+0x10>
    if (write(1, buf, n) != n) {
      printf(1, "cat: write error\n");
      exit();
    }
  }
  if(n < 0){
  d4:	75 1b                	jne    f1 <cat+0x61>
    printf(1, "cat: read error\n");
    exit();
  }
}
  d6:	8d 65 f8             	lea    -0x8(%ebp),%esp
  d9:	5b                   	pop    %ebx
  da:	5e                   	pop    %esi
  db:	5d                   	pop    %ebp
  dc:	c3                   	ret    
{
  int n;

  while((n = read(fd, buf, sizeof(buf))) > 0) {
    if (write(1, buf, n) != n) {
      printf(1, "cat: write error\n");
  dd:	83 ec 08             	sub    $0x8,%esp
  e0:	68 bc 0c 00 00       	push   $0xcbc
  e5:	6a 01                	push   $0x1
  e7:	e8 d4 03 00 00       	call   4c0 <printf>
      exit();
  ec:	e8 61 02 00 00       	call   352 <exit>
    }
  }
  if(n < 0){
    printf(1, "cat: read error\n");
  f1:	83 ec 08             	sub    $0x8,%esp
  f4:	68 ce 0c 00 00       	push   $0xcce
  f9:	6a 01                	push   $0x1
  fb:	e8 c0 03 00 00       	call   4c0 <printf>
    exit();
 100:	e8 4d 02 00 00       	call   352 <exit>
 105:	66 90                	xchg   %ax,%ax
 107:	66 90                	xchg   %ax,%ax
 109:	66 90                	xchg   %ax,%ax
 10b:	66 90                	xchg   %ax,%ax
 10d:	66 90                	xchg   %ax,%ax
 10f:	90                   	nop

00000110 <strcpy>:
#include "user.h"
#include "x86.h"

char*
strcpy(char *s, char *t)
{
 110:	55                   	push   %ebp
 111:	89 e5                	mov    %esp,%ebp
 113:	53                   	push   %ebx
 114:	8b 45 08             	mov    0x8(%ebp),%eax
 117:	8b 4d 0c             	mov    0xc(%ebp),%ecx
  char *os;

  os = s;
  while((*s++ = *t++) != 0)
 11a:	89 c2                	mov    %eax,%edx
 11c:	8d 74 26 00          	lea    0x0(%esi,%eiz,1),%esi
 120:	83 c1 01             	add    $0x1,%ecx
 123:	0f b6 59 ff          	movzbl -0x1(%ecx),%ebx
 127:	83 c2 01             	add    $0x1,%edx
 12a:	84 db                	test   %bl,%bl
 12c:	88 5a ff             	mov    %bl,-0x1(%edx)
 12f:	75 ef                	jne    120 <strcpy+0x10>
    ;
  return os;
}
 131:	5b                   	pop    %ebx
 132:	5d                   	pop    %ebp
 133:	c3                   	ret    
 134:	8d b6 00 00 00 00    	lea    0x0(%esi),%esi
 13a:	8d bf 00 00 00 00    	lea    0x0(%edi),%edi

00000140 <strcmp>:

int
strcmp(const char *p, const char *q)
{
 140:	55                   	push   %ebp
 141:	89 e5                	mov    %esp,%ebp
 143:	56                   	push   %esi
 144:	53                   	push   %ebx
 145:	8b 55 08             	mov    0x8(%ebp),%edx
 148:	8b 4d 0c             	mov    0xc(%ebp),%ecx
  while(*p && *p == *q)
 14b:	0f b6 02             	movzbl (%edx),%eax
 14e:	0f b6 19             	movzbl (%ecx),%ebx
 151:	84 c0                	test   %al,%al
 153:	75 1e                	jne    173 <strcmp+0x33>
 155:	eb 29                	jmp    180 <strcmp+0x40>
 157:	89 f6                	mov    %esi,%esi
 159:	8d bc 27 00 00 00 00 	lea    0x0(%edi,%eiz,1),%edi
    p++, q++;
 160:	83 c2 01             	add    $0x1,%edx
}

int
strcmp(const char *p, const char *q)
{
  while(*p && *p == *q)
 163:	0f b6 02             	movzbl (%edx),%eax
    p++, q++;
 166:	8d 71 01             	lea    0x1(%ecx),%esi
}

int
strcmp(const char *p, const char *q)
{
  while(*p && *p == *q)
 169:	0f b6 59 01          	movzbl 0x1(%ecx),%ebx
 16d:	84 c0                	test   %al,%al
 16f:	74 0f                	je     180 <strcmp+0x40>
 171:	89 f1                	mov    %esi,%ecx
 173:	38 d8                	cmp    %bl,%al
 175:	74 e9                	je     160 <strcmp+0x20>
    p++, q++;
  return (uchar)*p - (uchar)*q;
 177:	29 d8                	sub    %ebx,%eax
}
 179:	5b                   	pop    %ebx
 17a:	5e                   	pop    %esi
 17b:	5d                   	pop    %ebp
 17c:	c3                   	ret    
 17d:	8d 76 00             	lea    0x0(%esi),%esi
}

int
strcmp(const char *p, const char *q)
{
  while(*p && *p == *q)
 180:	31 c0                	xor    %eax,%eax
    p++, q++;
  return (uchar)*p - (uchar)*q;
 182:	29 d8                	sub    %ebx,%eax
}
 184:	5b                   	pop    %ebx
 185:	5e                   	pop    %esi
 186:	5d                   	pop    %ebp
 187:	c3                   	ret    
 188:	90                   	nop
 189:	8d b4 26 00 00 00 00 	lea    0x0(%esi,%eiz,1),%esi

00000190 <strlen>:

uint
strlen(char *s)
{
 190:	55                   	push   %ebp
 191:	89 e5                	mov    %esp,%ebp
 193:	8b 4d 08             	mov    0x8(%ebp),%ecx
  int n;

  for(n = 0; s[n]; n++)
 196:	80 39 00             	cmpb   $0x0,(%ecx)
 199:	74 12                	je     1ad <strlen+0x1d>
 19b:	31 d2                	xor    %edx,%edx
 19d:	8d 76 00             	lea    0x0(%esi),%esi
 1a0:	83 c2 01             	add    $0x1,%edx
 1a3:	80 3c 11 00          	cmpb   $0x0,(%ecx,%edx,1)
 1a7:	89 d0                	mov    %edx,%eax
 1a9:	75 f5                	jne    1a0 <strlen+0x10>
    ;
  return n;
}
 1ab:	5d                   	pop    %ebp
 1ac:	c3                   	ret    
uint
strlen(char *s)
{
  int n;

  for(n = 0; s[n]; n++)
 1ad:	31 c0                	xor    %eax,%eax
    ;
  return n;
}
 1af:	5d                   	pop    %ebp
 1b0:	c3                   	ret    
 1b1:	eb 0d                	jmp    1c0 <memset>
 1b3:	90                   	nop
 1b4:	90                   	nop
 1b5:	90                   	nop
 1b6:	90                   	nop
 1b7:	90                   	nop
 1b8:	90                   	nop
 1b9:	90                   	nop
 1ba:	90                   	nop
 1bb:	90                   	nop
 1bc:	90                   	nop
 1bd:	90                   	nop
 1be:	90                   	nop
 1bf:	90                   	nop

000001c0 <memset>:

void*
memset(void *dst, int c, uint n)
{
 1c0:	55                   	push   %ebp
 1c1:	89 e5                	mov    %esp,%ebp
 1c3:	57                   	push   %edi
 1c4:	8b 55 08             	mov    0x8(%ebp),%edx
}

static inline void
stosb(void *addr, int data, int cnt)
{
  asm volatile("cld; rep stosb" :
 1c7:	8b 4d 10             	mov    0x10(%ebp),%ecx
 1ca:	8b 45 0c             	mov    0xc(%ebp),%eax
 1cd:	89 d7                	mov    %edx,%edi
 1cf:	fc                   	cld    
 1d0:	f3 aa                	rep stos %al,%es:(%edi)
  stosb(dst, c, n);
  return dst;
}
 1d2:	89 d0                	mov    %edx,%eax
 1d4:	5f                   	pop    %edi
 1d5:	5d                   	pop    %ebp
 1d6:	c3                   	ret    
 1d7:	89 f6                	mov    %esi,%esi
 1d9:	8d bc 27 00 00 00 00 	lea    0x0(%edi,%eiz,1),%edi

000001e0 <strchr>:

char*
strchr(const char *s, char c)
{
 1e0:	55                   	push   %ebp
 1e1:	89 e5                	mov    %esp,%ebp
 1e3:	53                   	push   %ebx
 1e4:	8b 45 08             	mov    0x8(%ebp),%eax
 1e7:	8b 5d 0c             	mov    0xc(%ebp),%ebx
  for(; *s; s++)
 1ea:	0f b6 10             	movzbl (%eax),%edx
 1ed:	84 d2                	test   %dl,%dl
 1ef:	74 1d                	je     20e <strchr+0x2e>
    if(*s == c)
 1f1:	38 d3                	cmp    %dl,%bl
 1f3:	89 d9                	mov    %ebx,%ecx
 1f5:	75 0d                	jne    204 <strchr+0x24>
 1f7:	eb 17                	jmp    210 <strchr+0x30>
 1f9:	8d b4 26 00 00 00 00 	lea    0x0(%esi,%eiz,1),%esi
 200:	38 ca                	cmp    %cl,%dl
 202:	74 0c                	je     210 <strchr+0x30>
}

char*
strchr(const char *s, char c)
{
  for(; *s; s++)
 204:	83 c0 01             	add    $0x1,%eax
 207:	0f b6 10             	movzbl (%eax),%edx
 20a:	84 d2                	test   %dl,%dl
 20c:	75 f2                	jne    200 <strchr+0x20>
    if(*s == c)
      return (char*)s;
  return 0;
 20e:	31 c0                	xor    %eax,%eax
}
 210:	5b                   	pop    %ebx
 211:	5d                   	pop    %ebp
 212:	c3                   	ret    
 213:	8d b6 00 00 00 00    	lea    0x0(%esi),%esi
 219:	8d bc 27 00 00 00 00 	lea    0x0(%edi,%eiz,1),%edi

00000220 <gets>:

char*
gets(char *buf, int max)
{
 220:	55                   	push   %ebp
 221:	89 e5                	mov    %esp,%ebp
 223:	57                   	push   %edi
 224:	56                   	push   %esi
 225:	53                   	push   %ebx
  int i, cc;
  char c;

  for(i=0; i+1 < max; ){
 226:	31 f6                	xor    %esi,%esi
    cc = read(0, &c, 1);
 228:	8d 7d e7             	lea    -0x19(%ebp),%edi
  return 0;
}

char*
gets(char *buf, int max)
{
 22b:	83 ec 1c             	sub    $0x1c,%esp
  int i, cc;
  char c;

  for(i=0; i+1 < max; ){
 22e:	eb 29                	jmp    259 <gets+0x39>
    cc = read(0, &c, 1);
 230:	83 ec 04             	sub    $0x4,%esp
 233:	6a 01                	push   $0x1
 235:	57                   	push   %edi
 236:	6a 00                	push   $0x0
 238:	e8 2d 01 00 00       	call   36a <read>
    if(cc < 1)
 23d:	83 c4 10             	add    $0x10,%esp
 240:	85 c0                	test   %eax,%eax
 242:	7e 1d                	jle    261 <gets+0x41>
      break;
    buf[i++] = c;
 244:	0f b6 45 e7          	movzbl -0x19(%ebp),%eax
 248:	8b 55 08             	mov    0x8(%ebp),%edx
 24b:	89 de                	mov    %ebx,%esi
    if(c == '\n' || c == '\r')
 24d:	3c 0a                	cmp    $0xa,%al

  for(i=0; i+1 < max; ){
    cc = read(0, &c, 1);
    if(cc < 1)
      break;
    buf[i++] = c;
 24f:	88 44 1a ff          	mov    %al,-0x1(%edx,%ebx,1)
    if(c == '\n' || c == '\r')
 253:	74 1b                	je     270 <gets+0x50>
 255:	3c 0d                	cmp    $0xd,%al
 257:	74 17                	je     270 <gets+0x50>
gets(char *buf, int max)
{
  int i, cc;
  char c;

  for(i=0; i+1 < max; ){
 259:	8d 5e 01             	lea    0x1(%esi),%ebx
 25c:	3b 5d 0c             	cmp    0xc(%ebp),%ebx
 25f:	7c cf                	jl     230 <gets+0x10>
      break;
    buf[i++] = c;
    if(c == '\n' || c == '\r')
      break;
  }
  buf[i] = '\0';
 261:	8b 45 08             	mov    0x8(%ebp),%eax
 264:	c6 04 30 00          	movb   $0x0,(%eax,%esi,1)
  return buf;
}
 268:	8d 65 f4             	lea    -0xc(%ebp),%esp
 26b:	5b                   	pop    %ebx
 26c:	5e                   	pop    %esi
 26d:	5f                   	pop    %edi
 26e:	5d                   	pop    %ebp
 26f:	c3                   	ret    
      break;
    buf[i++] = c;
    if(c == '\n' || c == '\r')
      break;
  }
  buf[i] = '\0';
 270:	8b 45 08             	mov    0x8(%ebp),%eax
gets(char *buf, int max)
{
  int i, cc;
  char c;

  for(i=0; i+1 < max; ){
 273:	89 de                	mov    %ebx,%esi
      break;
    buf[i++] = c;
    if(c == '\n' || c == '\r')
      break;
  }
  buf[i] = '\0';
 275:	c6 04 30 00          	movb   $0x0,(%eax,%esi,1)
  return buf;
}
 279:	8d 65 f4             	lea    -0xc(%ebp),%esp
 27c:	5b                   	pop    %ebx
 27d:	5e                   	pop    %esi
 27e:	5f                   	pop    %edi
 27f:	5d                   	pop    %ebp
 280:	c3                   	ret    
 281:	eb 0d                	jmp    290 <stat>
 283:	90                   	nop
 284:	90                   	nop
 285:	90                   	nop
 286:	90                   	nop
 287:	90                   	nop
 288:	90                   	nop
 289:	90                   	nop
 28a:	90                   	nop
 28b:	90                   	nop
 28c:	90                   	nop
 28d:	90                   	nop
 28e:	90                   	nop
 28f:	90                   	nop

00000290 <stat>:

int
stat(char *n, struct stat *st)
{
 290:	55                   	push   %ebp
 291:	89 e5                	mov    %esp,%ebp
 293:	56                   	push   %esi
 294:	53                   	push   %ebx
  int fd;
  int r;

  fd = open(n, O_RDONLY);
 295:	83 ec 08             	sub    $0x8,%esp
 298:	6a 00                	push   $0x0
 29a:	ff 75 08             	pushl  0x8(%ebp)
 29d:	e8 f0 00 00 00       	call   392 <open>
  if(fd < 0)
 2a2:	83 c4 10             	add    $0x10,%esp
 2a5:	85 c0                	test   %eax,%eax
 2a7:	78 27                	js     2d0 <stat+0x40>
    return -1;
  r = fstat(fd, st);
 2a9:	83 ec 08             	sub    $0x8,%esp
 2ac:	ff 75 0c             	pushl  0xc(%ebp)
 2af:	89 c3                	mov    %eax,%ebx
 2b1:	50                   	push   %eax
 2b2:	e8 f3 00 00 00       	call   3aa <fstat>
 2b7:	89 c6                	mov    %eax,%esi
  close(fd);
 2b9:	89 1c 24             	mov    %ebx,(%esp)
 2bc:	e8 b9 00 00 00       	call   37a <close>
  return r;
 2c1:	83 c4 10             	add    $0x10,%esp
 2c4:	89 f0                	mov    %esi,%eax
}
 2c6:	8d 65 f8             	lea    -0x8(%ebp),%esp
 2c9:	5b                   	pop    %ebx
 2ca:	5e                   	pop    %esi
 2cb:	5d                   	pop    %ebp
 2cc:	c3                   	ret    
 2cd:	8d 76 00             	lea    0x0(%esi),%esi
  int fd;
  int r;

  fd = open(n, O_RDONLY);
  if(fd < 0)
    return -1;
 2d0:	b8 ff ff ff ff       	mov    $0xffffffff,%eax
 2d5:	eb ef                	jmp    2c6 <stat+0x36>
 2d7:	89 f6                	mov    %esi,%esi
 2d9:	8d bc 27 00 00 00 00 	lea    0x0(%edi,%eiz,1),%edi

000002e0 <atoi>:
  return r;
}

int
atoi(const char *s)
{
 2e0:	55                   	push   %ebp
 2e1:	89 e5                	mov    %esp,%ebp
 2e3:	53                   	push   %ebx
 2e4:	8b 4d 08             	mov    0x8(%ebp),%ecx
  int n;

  n = 0;
  while('0' <= *s && *s <= '9')
 2e7:	0f be 11             	movsbl (%ecx),%edx
 2ea:	8d 42 d0             	lea    -0x30(%edx),%eax
 2ed:	3c 09                	cmp    $0x9,%al
 2ef:	b8 00 00 00 00       	mov    $0x0,%eax
 2f4:	77 1f                	ja     315 <atoi+0x35>
 2f6:	8d 76 00             	lea    0x0(%esi),%esi
 2f9:	8d bc 27 00 00 00 00 	lea    0x0(%edi,%eiz,1),%edi
    n = n*10 + *s++ - '0';
 300:	8d 04 80             	lea    (%eax,%eax,4),%eax
 303:	83 c1 01             	add    $0x1,%ecx
 306:	8d 44 42 d0          	lea    -0x30(%edx,%eax,2),%eax
atoi(const char *s)
{
  int n;

  n = 0;
  while('0' <= *s && *s <= '9')
 30a:	0f be 11             	movsbl (%ecx),%edx
 30d:	8d 5a d0             	lea    -0x30(%edx),%ebx
 310:	80 fb 09             	cmp    $0x9,%bl
 313:	76 eb                	jbe    300 <atoi+0x20>
    n = n*10 + *s++ - '0';
  return n;
}
 315:	5b                   	pop    %ebx
 316:	5d                   	pop    %ebp
 317:	c3                   	ret    
 318:	90                   	nop
 319:	8d b4 26 00 00 00 00 	lea    0x0(%esi,%eiz,1),%esi

00000320 <memmove>:

void*
memmove(void *vdst, void *vsrc, int n)
{
 320:	55                   	push   %ebp
 321:	89 e5                	mov    %esp,%ebp
 323:	56                   	push   %esi
 324:	53                   	push   %ebx
 325:	8b 5d 10             	mov    0x10(%ebp),%ebx
 328:	8b 45 08             	mov    0x8(%ebp),%eax
 32b:	8b 75 0c             	mov    0xc(%ebp),%esi
  char *dst, *src;

  dst = vdst;
  src = vsrc;
  while(n-- > 0)
 32e:	85 db                	test   %ebx,%ebx
 330:	7e 14                	jle    346 <memmove+0x26>
 332:	31 d2                	xor    %edx,%edx
 334:	8d 74 26 00          	lea    0x0(%esi,%eiz,1),%esi
    *dst++ = *src++;
 338:	0f b6 0c 16          	movzbl (%esi,%edx,1),%ecx
 33c:	88 0c 10             	mov    %cl,(%eax,%edx,1)
 33f:	83 c2 01             	add    $0x1,%edx
{
  char *dst, *src;

  dst = vdst;
  src = vsrc;
  while(n-- > 0)
 342:	39 da                	cmp    %ebx,%edx
 344:	75 f2                	jne    338 <memmove+0x18>
    *dst++ = *src++;
  return vdst;
}
 346:	5b                   	pop    %ebx
 347:	5e                   	pop    %esi
 348:	5d                   	pop    %ebp
 349:	c3                   	ret    

0000034a <fork>:
  name: \
    movl $SYS_ ## name, %eax; \
    int $T_SYSCALL; \
    ret

SYSCALL(fork)
 34a:	b8 01 00 00 00       	mov    $0x1,%eax
 34f:	cd 40                	int    $0x40
 351:	c3                   	ret    

00000352 <exit>:
SYSCALL(exit)
 352:	b8 02 00 00 00       	mov    $0x2,%eax
 357:	cd 40                	int    $0x40
 359:	c3                   	ret    

0000035a <wait>:
SYSCALL(wait)
 35a:	b8 03 00 00 00       	mov    $0x3,%eax
 35f:	cd 40                	int    $0x40
 361:	c3                   	ret    

00000362 <pipe>:
SYSCALL(pipe)
 362:	b8 04 00 00 00       	mov    $0x4,%eax
 367:	cd 40                	int    $0x40
 369:	c3                   	ret    

0000036a <read>:
SYSCALL(read)
 36a:	b8 05 00 00 00       	mov    $0x5,%eax
 36f:	cd 40                	int    $0x40
 371:	c3                   	ret    

00000372 <write>:
SYSCALL(write)
 372:	b8 10 00 00 00       	mov    $0x10,%eax
 377:	cd 40                	int    $0x40
 379:	c3                   	ret    

0000037a <close>:
SYSCALL(close)
 37a:	b8 15 00 00 00       	mov    $0x15,%eax
 37f:	cd 40                	int    $0x40
 381:	c3                   	ret    

00000382 <kill>:
SYSCALL(kill)
 382:	b8 06 00 00 00       	mov    $0x6,%eax
 387:	cd 40                	int    $0x40
 389:	c3                   	ret    

0000038a <exec>:
SYSCALL(exec)
 38a:	b8 07 00 00 00       	mov    $0x7,%eax
 38f:	cd 40                	int    $0x40
 391:	c3                   	ret    

00000392 <open>:
SYSCALL(open)
 392:	b8 0f 00 00 00       	mov    $0xf,%eax
 397:	cd 40                	int    $0x40
 399:	c3                   	ret    

0000039a <mknod>:
SYSCALL(mknod)
 39a:	b8 11 00 00 00       	mov    $0x11,%eax
 39f:	cd 40                	int    $0x40
 3a1:	c3                   	ret    

000003a2 <unlink>:
SYSCALL(unlink)
 3a2:	b8 12 00 00 00       	mov    $0x12,%eax
 3a7:	cd 40                	int    $0x40
 3a9:	c3                   	ret    

000003aa <fstat>:
SYSCALL(fstat)
 3aa:	b8 08 00 00 00       	mov    $0x8,%eax
 3af:	cd 40                	int    $0x40
 3b1:	c3                   	ret    

000003b2 <link>:
SYSCALL(link)
 3b2:	b8 13 00 00 00       	mov    $0x13,%eax
 3b7:	cd 40                	int    $0x40
 3b9:	c3                   	ret    

000003ba <mkdir>:
SYSCALL(mkdir)
 3ba:	b8 14 00 00 00       	mov    $0x14,%eax
 3bf:	cd 40                	int    $0x40
 3c1:	c3                   	ret    

000003c2 <chdir>:
SYSCALL(chdir)
 3c2:	b8 09 00 00 00       	mov    $0x9,%eax
 3c7:	cd 40                	int    $0x40
 3c9:	c3                   	ret    

000003ca <dup>:
SYSCALL(dup)
 3ca:	b8 0a 00 00 00       	mov    $0xa,%eax
 3cf:	cd 40                	int    $0x40
 3d1:	c3                   	ret    

000003d2 <getpid>:
SYSCALL(getpid)
 3d2:	b8 0b 00 00 00       	mov    $0xb,%eax
 3d7:	cd 40                	int    $0x40
 3d9:	c3                   	ret    

000003da <sbrk>:
SYSCALL(sbrk)
 3da:	b8 0c 00 00 00       	mov    $0xc,%eax
 3df:	cd 40                	int    $0x40
 3e1:	c3                   	ret    

000003e2 <sleep>:
SYSCALL(sleep)
 3e2:	b8 0d 00 00 00       	mov    $0xd,%eax
 3e7:	cd 40                	int    $0x40
 3e9:	c3                   	ret    

000003ea <uptime>:
SYSCALL(uptime)
 3ea:	b8 0e 00 00 00       	mov    $0xe,%eax
 3ef:	cd 40                	int    $0x40
 3f1:	c3                   	ret    

000003f2 <signal>:
/*pazit---------------------------------------------------*/
SYSCALL(signal)  
 3f2:	b8 16 00 00 00       	mov    $0x16,%eax
 3f7:	cd 40                	int    $0x40
 3f9:	c3                   	ret    

000003fa <sigsend>:
SYSCALL(sigsend)  
 3fa:	b8 17 00 00 00       	mov    $0x17,%eax
 3ff:	cd 40                	int    $0x40
 401:	c3                   	ret    

00000402 <sigreturn>:
SYSCALL(sigreturn) 
 402:	b8 18 00 00 00       	mov    $0x18,%eax
 407:	cd 40                	int    $0x40
 409:	c3                   	ret    

0000040a <alarm>:
SYSCALL(alarm)
 40a:	b8 19 00 00 00       	mov    $0x19,%eax
 40f:	cd 40                	int    $0x40
 411:	c3                   	ret    
 412:	66 90                	xchg   %ax,%ax
 414:	66 90                	xchg   %ax,%ax
 416:	66 90                	xchg   %ax,%ax
 418:	66 90                	xchg   %ax,%ax
 41a:	66 90                	xchg   %ax,%ax
 41c:	66 90                	xchg   %ax,%ax
 41e:	66 90                	xchg   %ax,%ax

00000420 <printint>:
  write(fd, &c, 1);
}

static void
printint(int fd, int xx, int base, int sgn)
{
 420:	55                   	push   %ebp
 421:	89 e5                	mov    %esp,%ebp
 423:	57                   	push   %edi
 424:	56                   	push   %esi
 425:	53                   	push   %ebx
 426:	89 c6                	mov    %eax,%esi
 428:	83 ec 3c             	sub    $0x3c,%esp
  char buf[16];
  int i, neg;
  uint x;

  neg = 0;
  if(sgn && xx < 0){
 42b:	8b 5d 08             	mov    0x8(%ebp),%ebx
 42e:	85 db                	test   %ebx,%ebx
 430:	74 7e                	je     4b0 <printint+0x90>
 432:	89 d0                	mov    %edx,%eax
 434:	c1 e8 1f             	shr    $0x1f,%eax
 437:	84 c0                	test   %al,%al
 439:	74 75                	je     4b0 <printint+0x90>
    neg = 1;
    x = -xx;
 43b:	89 d0                	mov    %edx,%eax
  int i, neg;
  uint x;

  neg = 0;
  if(sgn && xx < 0){
    neg = 1;
 43d:	c7 45 c4 01 00 00 00 	movl   $0x1,-0x3c(%ebp)
    x = -xx;
 444:	f7 d8                	neg    %eax
 446:	89 75 c0             	mov    %esi,-0x40(%ebp)
  } else {
    x = xx;
  }

  i = 0;
 449:	31 ff                	xor    %edi,%edi
 44b:	8d 5d d7             	lea    -0x29(%ebp),%ebx
 44e:	89 ce                	mov    %ecx,%esi
 450:	eb 08                	jmp    45a <printint+0x3a>
 452:	8d b6 00 00 00 00    	lea    0x0(%esi),%esi
  do{
    buf[i++] = digits[x % base];
 458:	89 cf                	mov    %ecx,%edi
 45a:	31 d2                	xor    %edx,%edx
 45c:	8d 4f 01             	lea    0x1(%edi),%ecx
 45f:	f7 f6                	div    %esi
 461:	0f b6 92 fc 0c 00 00 	movzbl 0xcfc(%edx),%edx
  }while((x /= base) != 0);
 468:	85 c0                	test   %eax,%eax
    x = xx;
  }

  i = 0;
  do{
    buf[i++] = digits[x % base];
 46a:	88 14 0b             	mov    %dl,(%ebx,%ecx,1)
  }while((x /= base) != 0);
 46d:	75 e9                	jne    458 <printint+0x38>
  if(neg)
 46f:	8b 45 c4             	mov    -0x3c(%ebp),%eax
 472:	8b 75 c0             	mov    -0x40(%ebp),%esi
 475:	85 c0                	test   %eax,%eax
 477:	74 08                	je     481 <printint+0x61>
    buf[i++] = '-';
 479:	c6 44 0d d8 2d       	movb   $0x2d,-0x28(%ebp,%ecx,1)
 47e:	8d 4f 02             	lea    0x2(%edi),%ecx
 481:	8d 7c 0d d7          	lea    -0x29(%ebp,%ecx,1),%edi
 485:	8d 76 00             	lea    0x0(%esi),%esi
 488:	0f b6 07             	movzbl (%edi),%eax
#include "user.h"

static void
putc(int fd, char c)
{
  write(fd, &c, 1);
 48b:	83 ec 04             	sub    $0x4,%esp
 48e:	83 ef 01             	sub    $0x1,%edi
 491:	6a 01                	push   $0x1
 493:	53                   	push   %ebx
 494:	56                   	push   %esi
 495:	88 45 d7             	mov    %al,-0x29(%ebp)
 498:	e8 d5 fe ff ff       	call   372 <write>
    buf[i++] = digits[x % base];
  }while((x /= base) != 0);
  if(neg)
    buf[i++] = '-';

  while(--i >= 0)
 49d:	83 c4 10             	add    $0x10,%esp
 4a0:	39 df                	cmp    %ebx,%edi
 4a2:	75 e4                	jne    488 <printint+0x68>
    putc(fd, buf[i]);
}
 4a4:	8d 65 f4             	lea    -0xc(%ebp),%esp
 4a7:	5b                   	pop    %ebx
 4a8:	5e                   	pop    %esi
 4a9:	5f                   	pop    %edi
 4aa:	5d                   	pop    %ebp
 4ab:	c3                   	ret    
 4ac:	8d 74 26 00          	lea    0x0(%esi,%eiz,1),%esi
  neg = 0;
  if(sgn && xx < 0){
    neg = 1;
    x = -xx;
  } else {
    x = xx;
 4b0:	89 d0                	mov    %edx,%eax
  static char digits[] = "0123456789ABCDEF";
  char buf[16];
  int i, neg;
  uint x;

  neg = 0;
 4b2:	c7 45 c4 00 00 00 00 	movl   $0x0,-0x3c(%ebp)
 4b9:	eb 8b                	jmp    446 <printint+0x26>
 4bb:	90                   	nop
 4bc:	8d 74 26 00          	lea    0x0(%esi,%eiz,1),%esi

000004c0 <printf>:
}

// Print to the given fd. Only understands %d, %x, %p, %s.
void
printf(int fd, char *fmt, ...)
{
 4c0:	55                   	push   %ebp
 4c1:	89 e5                	mov    %esp,%ebp
 4c3:	57                   	push   %edi
 4c4:	56                   	push   %esi
 4c5:	53                   	push   %ebx
  int c, i, state;
  uint *ap;

  state = 0;
  ap = (uint*)(void*)&fmt + 1;
  for(i = 0; fmt[i]; i++){
 4c6:	8d 45 10             	lea    0x10(%ebp),%eax
}

// Print to the given fd. Only understands %d, %x, %p, %s.
void
printf(int fd, char *fmt, ...)
{
 4c9:	83 ec 2c             	sub    $0x2c,%esp
  int c, i, state;
  uint *ap;

  state = 0;
  ap = (uint*)(void*)&fmt + 1;
  for(i = 0; fmt[i]; i++){
 4cc:	8b 75 0c             	mov    0xc(%ebp),%esi
}

// Print to the given fd. Only understands %d, %x, %p, %s.
void
printf(int fd, char *fmt, ...)
{
 4cf:	8b 7d 08             	mov    0x8(%ebp),%edi
  int c, i, state;
  uint *ap;

  state = 0;
  ap = (uint*)(void*)&fmt + 1;
  for(i = 0; fmt[i]; i++){
 4d2:	89 45 d0             	mov    %eax,-0x30(%ebp)
 4d5:	0f b6 1e             	movzbl (%esi),%ebx
 4d8:	83 c6 01             	add    $0x1,%esi
 4db:	84 db                	test   %bl,%bl
 4dd:	0f 84 b0 00 00 00    	je     593 <printf+0xd3>
 4e3:	31 d2                	xor    %edx,%edx
 4e5:	eb 39                	jmp    520 <printf+0x60>
 4e7:	89 f6                	mov    %esi,%esi
 4e9:	8d bc 27 00 00 00 00 	lea    0x0(%edi,%eiz,1),%edi
    c = fmt[i] & 0xff;
    if(state == 0){
      if(c == '%'){
 4f0:	83 f8 25             	cmp    $0x25,%eax
 4f3:	89 55 d4             	mov    %edx,-0x2c(%ebp)
        state = '%';
 4f6:	ba 25 00 00 00       	mov    $0x25,%edx
  state = 0;
  ap = (uint*)(void*)&fmt + 1;
  for(i = 0; fmt[i]; i++){
    c = fmt[i] & 0xff;
    if(state == 0){
      if(c == '%'){
 4fb:	74 18                	je     515 <printf+0x55>
#include "user.h"

static void
putc(int fd, char c)
{
  write(fd, &c, 1);
 4fd:	8d 45 e2             	lea    -0x1e(%ebp),%eax
 500:	83 ec 04             	sub    $0x4,%esp
 503:	88 5d e2             	mov    %bl,-0x1e(%ebp)
 506:	6a 01                	push   $0x1
 508:	50                   	push   %eax
 509:	57                   	push   %edi
 50a:	e8 63 fe ff ff       	call   372 <write>
 50f:	8b 55 d4             	mov    -0x2c(%ebp),%edx
 512:	83 c4 10             	add    $0x10,%esp
 515:	83 c6 01             	add    $0x1,%esi
  int c, i, state;
  uint *ap;

  state = 0;
  ap = (uint*)(void*)&fmt + 1;
  for(i = 0; fmt[i]; i++){
 518:	0f b6 5e ff          	movzbl -0x1(%esi),%ebx
 51c:	84 db                	test   %bl,%bl
 51e:	74 73                	je     593 <printf+0xd3>
    c = fmt[i] & 0xff;
    if(state == 0){
 520:	85 d2                	test   %edx,%edx
  uint *ap;

  state = 0;
  ap = (uint*)(void*)&fmt + 1;
  for(i = 0; fmt[i]; i++){
    c = fmt[i] & 0xff;
 522:	0f be cb             	movsbl %bl,%ecx
 525:	0f b6 c3             	movzbl %bl,%eax
    if(state == 0){
 528:	74 c6                	je     4f0 <printf+0x30>
      if(c == '%'){
        state = '%';
      } else {
        putc(fd, c);
      }
    } else if(state == '%'){
 52a:	83 fa 25             	cmp    $0x25,%edx
 52d:	75 e6                	jne    515 <printf+0x55>
      if(c == 'd'){
 52f:	83 f8 64             	cmp    $0x64,%eax
 532:	0f 84 f8 00 00 00    	je     630 <printf+0x170>
        printint(fd, *ap, 10, 1);
        ap++;
      } else if(c == 'x' || c == 'p'){
 538:	81 e1 f7 00 00 00    	and    $0xf7,%ecx
 53e:	83 f9 70             	cmp    $0x70,%ecx
 541:	74 5d                	je     5a0 <printf+0xe0>
        printint(fd, *ap, 16, 0);
        ap++;
      } else if(c == 's'){
 543:	83 f8 73             	cmp    $0x73,%eax
 546:	0f 84 84 00 00 00    	je     5d0 <printf+0x110>
          s = "(null)";
        while(*s != 0){
          putc(fd, *s);
          s++;
        }
      } else if(c == 'c'){
 54c:	83 f8 63             	cmp    $0x63,%eax
 54f:	0f 84 ea 00 00 00    	je     63f <printf+0x17f>
        putc(fd, *ap);
        ap++;
      } else if(c == '%'){
 555:	83 f8 25             	cmp    $0x25,%eax
 558:	0f 84 c2 00 00 00    	je     620 <printf+0x160>
#include "user.h"

static void
putc(int fd, char c)
{
  write(fd, &c, 1);
 55e:	8d 45 e7             	lea    -0x19(%ebp),%eax
 561:	83 ec 04             	sub    $0x4,%esp
 564:	c6 45 e7 25          	movb   $0x25,-0x19(%ebp)
 568:	6a 01                	push   $0x1
 56a:	50                   	push   %eax
 56b:	57                   	push   %edi
 56c:	e8 01 fe ff ff       	call   372 <write>
 571:	83 c4 0c             	add    $0xc,%esp
 574:	8d 45 e6             	lea    -0x1a(%ebp),%eax
 577:	88 5d e6             	mov    %bl,-0x1a(%ebp)
 57a:	6a 01                	push   $0x1
 57c:	50                   	push   %eax
 57d:	57                   	push   %edi
 57e:	83 c6 01             	add    $0x1,%esi
 581:	e8 ec fd ff ff       	call   372 <write>
  int c, i, state;
  uint *ap;

  state = 0;
  ap = (uint*)(void*)&fmt + 1;
  for(i = 0; fmt[i]; i++){
 586:	0f b6 5e ff          	movzbl -0x1(%esi),%ebx
#include "user.h"

static void
putc(int fd, char c)
{
  write(fd, &c, 1);
 58a:	83 c4 10             	add    $0x10,%esp
      } else {
        // Unknown % sequence.  Print it to draw attention.
        putc(fd, '%');
        putc(fd, c);
      }
      state = 0;
 58d:	31 d2                	xor    %edx,%edx
  int c, i, state;
  uint *ap;

  state = 0;
  ap = (uint*)(void*)&fmt + 1;
  for(i = 0; fmt[i]; i++){
 58f:	84 db                	test   %bl,%bl
 591:	75 8d                	jne    520 <printf+0x60>
        putc(fd, c);
      }
      state = 0;
    }
  }
}
 593:	8d 65 f4             	lea    -0xc(%ebp),%esp
 596:	5b                   	pop    %ebx
 597:	5e                   	pop    %esi
 598:	5f                   	pop    %edi
 599:	5d                   	pop    %ebp
 59a:	c3                   	ret    
 59b:	90                   	nop
 59c:	8d 74 26 00          	lea    0x0(%esi,%eiz,1),%esi
    } else if(state == '%'){
      if(c == 'd'){
        printint(fd, *ap, 10, 1);
        ap++;
      } else if(c == 'x' || c == 'p'){
        printint(fd, *ap, 16, 0);
 5a0:	83 ec 0c             	sub    $0xc,%esp
 5a3:	b9 10 00 00 00       	mov    $0x10,%ecx
 5a8:	6a 00                	push   $0x0
 5aa:	8b 5d d0             	mov    -0x30(%ebp),%ebx
 5ad:	89 f8                	mov    %edi,%eax
 5af:	8b 13                	mov    (%ebx),%edx
 5b1:	e8 6a fe ff ff       	call   420 <printint>
        ap++;
 5b6:	89 d8                	mov    %ebx,%eax
 5b8:	83 c4 10             	add    $0x10,%esp
      } else {
        // Unknown % sequence.  Print it to draw attention.
        putc(fd, '%');
        putc(fd, c);
      }
      state = 0;
 5bb:	31 d2                	xor    %edx,%edx
      if(c == 'd'){
        printint(fd, *ap, 10, 1);
        ap++;
      } else if(c == 'x' || c == 'p'){
        printint(fd, *ap, 16, 0);
        ap++;
 5bd:	83 c0 04             	add    $0x4,%eax
 5c0:	89 45 d0             	mov    %eax,-0x30(%ebp)
 5c3:	e9 4d ff ff ff       	jmp    515 <printf+0x55>
 5c8:	90                   	nop
 5c9:	8d b4 26 00 00 00 00 	lea    0x0(%esi,%eiz,1),%esi
      } else if(c == 's'){
        s = (char*)*ap;
 5d0:	8b 45 d0             	mov    -0x30(%ebp),%eax
 5d3:	8b 18                	mov    (%eax),%ebx
        ap++;
 5d5:	83 c0 04             	add    $0x4,%eax
 5d8:	89 45 d0             	mov    %eax,-0x30(%ebp)
        if(s == 0)
          s = "(null)";
 5db:	b8 f4 0c 00 00       	mov    $0xcf4,%eax
 5e0:	85 db                	test   %ebx,%ebx
 5e2:	0f 44 d8             	cmove  %eax,%ebx
        while(*s != 0){
 5e5:	0f b6 03             	movzbl (%ebx),%eax
 5e8:	84 c0                	test   %al,%al
 5ea:	74 23                	je     60f <printf+0x14f>
 5ec:	8d 74 26 00          	lea    0x0(%esi,%eiz,1),%esi
 5f0:	88 45 e3             	mov    %al,-0x1d(%ebp)
#include "user.h"

static void
putc(int fd, char c)
{
  write(fd, &c, 1);
 5f3:	8d 45 e3             	lea    -0x1d(%ebp),%eax
 5f6:	83 ec 04             	sub    $0x4,%esp
 5f9:	6a 01                	push   $0x1
        ap++;
        if(s == 0)
          s = "(null)";
        while(*s != 0){
          putc(fd, *s);
          s++;
 5fb:	83 c3 01             	add    $0x1,%ebx
#include "user.h"

static void
putc(int fd, char c)
{
  write(fd, &c, 1);
 5fe:	50                   	push   %eax
 5ff:	57                   	push   %edi
 600:	e8 6d fd ff ff       	call   372 <write>
      } else if(c == 's'){
        s = (char*)*ap;
        ap++;
        if(s == 0)
          s = "(null)";
        while(*s != 0){
 605:	0f b6 03             	movzbl (%ebx),%eax
 608:	83 c4 10             	add    $0x10,%esp
 60b:	84 c0                	test   %al,%al
 60d:	75 e1                	jne    5f0 <printf+0x130>
      } else {
        // Unknown % sequence.  Print it to draw attention.
        putc(fd, '%');
        putc(fd, c);
      }
      state = 0;
 60f:	31 d2                	xor    %edx,%edx
 611:	e9 ff fe ff ff       	jmp    515 <printf+0x55>
 616:	8d 76 00             	lea    0x0(%esi),%esi
 619:	8d bc 27 00 00 00 00 	lea    0x0(%edi,%eiz,1),%edi
#include "user.h"

static void
putc(int fd, char c)
{
  write(fd, &c, 1);
 620:	83 ec 04             	sub    $0x4,%esp
 623:	88 5d e5             	mov    %bl,-0x1b(%ebp)
 626:	8d 45 e5             	lea    -0x1b(%ebp),%eax
 629:	6a 01                	push   $0x1
 62b:	e9 4c ff ff ff       	jmp    57c <printf+0xbc>
      } else {
        putc(fd, c);
      }
    } else if(state == '%'){
      if(c == 'd'){
        printint(fd, *ap, 10, 1);
 630:	83 ec 0c             	sub    $0xc,%esp
 633:	b9 0a 00 00 00       	mov    $0xa,%ecx
 638:	6a 01                	push   $0x1
 63a:	e9 6b ff ff ff       	jmp    5aa <printf+0xea>
 63f:	8b 5d d0             	mov    -0x30(%ebp),%ebx
#include "user.h"

static void
putc(int fd, char c)
{
  write(fd, &c, 1);
 642:	83 ec 04             	sub    $0x4,%esp
 645:	8b 03                	mov    (%ebx),%eax
 647:	6a 01                	push   $0x1
 649:	88 45 e4             	mov    %al,-0x1c(%ebp)
 64c:	8d 45 e4             	lea    -0x1c(%ebp),%eax
 64f:	50                   	push   %eax
 650:	57                   	push   %edi
 651:	e8 1c fd ff ff       	call   372 <write>
 656:	e9 5b ff ff ff       	jmp    5b6 <printf+0xf6>
 65b:	66 90                	xchg   %ax,%ax
 65d:	66 90                	xchg   %ax,%ax
 65f:	90                   	nop

00000660 <free>:
static Header base;
static Header *freep;

void
free(void *ap)
{
 660:	55                   	push   %ebp
  Header *bp, *p;

  bp = (Header*)ap - 1;
  for(p = freep; !(bp > p && bp < p->s.ptr); p = p->s.ptr)
 661:	a1 c0 11 00 00       	mov    0x11c0,%eax
static Header base;
static Header *freep;

void
free(void *ap)
{
 666:	89 e5                	mov    %esp,%ebp
 668:	57                   	push   %edi
 669:	56                   	push   %esi
 66a:	53                   	push   %ebx
 66b:	8b 5d 08             	mov    0x8(%ebp),%ebx
  Header *bp, *p;

  bp = (Header*)ap - 1;
  for(p = freep; !(bp > p && bp < p->s.ptr); p = p->s.ptr)
    if(p >= p->s.ptr && (bp > p || bp < p->s.ptr))
 66e:	8b 10                	mov    (%eax),%edx
void
free(void *ap)
{
  Header *bp, *p;

  bp = (Header*)ap - 1;
 670:	8d 4b f8             	lea    -0x8(%ebx),%ecx
  for(p = freep; !(bp > p && bp < p->s.ptr); p = p->s.ptr)
 673:	39 c8                	cmp    %ecx,%eax
 675:	73 19                	jae    690 <free+0x30>
 677:	89 f6                	mov    %esi,%esi
 679:	8d bc 27 00 00 00 00 	lea    0x0(%edi,%eiz,1),%edi
 680:	39 d1                	cmp    %edx,%ecx
 682:	72 1c                	jb     6a0 <free+0x40>
    if(p >= p->s.ptr && (bp > p || bp < p->s.ptr))
 684:	39 d0                	cmp    %edx,%eax
 686:	73 18                	jae    6a0 <free+0x40>
static Header base;
static Header *freep;

void
free(void *ap)
{
 688:	89 d0                	mov    %edx,%eax
  Header *bp, *p;

  bp = (Header*)ap - 1;
  for(p = freep; !(bp > p && bp < p->s.ptr); p = p->s.ptr)
 68a:	39 c8                	cmp    %ecx,%eax
    if(p >= p->s.ptr && (bp > p || bp < p->s.ptr))
 68c:	8b 10                	mov    (%eax),%edx
free(void *ap)
{
  Header *bp, *p;

  bp = (Header*)ap - 1;
  for(p = freep; !(bp > p && bp < p->s.ptr); p = p->s.ptr)
 68e:	72 f0                	jb     680 <free+0x20>
    if(p >= p->s.ptr && (bp > p || bp < p->s.ptr))
 690:	39 d0                	cmp    %edx,%eax
 692:	72 f4                	jb     688 <free+0x28>
 694:	39 d1                	cmp    %edx,%ecx
 696:	73 f0                	jae    688 <free+0x28>
 698:	90                   	nop
 699:	8d b4 26 00 00 00 00 	lea    0x0(%esi,%eiz,1),%esi
      break;
  if(bp + bp->s.size == p->s.ptr){
 6a0:	8b 73 fc             	mov    -0x4(%ebx),%esi
 6a3:	8d 3c f1             	lea    (%ecx,%esi,8),%edi
 6a6:	39 d7                	cmp    %edx,%edi
 6a8:	74 19                	je     6c3 <free+0x63>
    bp->s.size += p->s.ptr->s.size;
    bp->s.ptr = p->s.ptr->s.ptr;
  } else
    bp->s.ptr = p->s.ptr;
 6aa:	89 53 f8             	mov    %edx,-0x8(%ebx)
  if(p + p->s.size == bp){
 6ad:	8b 50 04             	mov    0x4(%eax),%edx
 6b0:	8d 34 d0             	lea    (%eax,%edx,8),%esi
 6b3:	39 f1                	cmp    %esi,%ecx
 6b5:	74 23                	je     6da <free+0x7a>
    p->s.size += bp->s.size;
    p->s.ptr = bp->s.ptr;
  } else
    p->s.ptr = bp;
 6b7:	89 08                	mov    %ecx,(%eax)
  freep = p;
 6b9:	a3 c0 11 00 00       	mov    %eax,0x11c0
}
 6be:	5b                   	pop    %ebx
 6bf:	5e                   	pop    %esi
 6c0:	5f                   	pop    %edi
 6c1:	5d                   	pop    %ebp
 6c2:	c3                   	ret    
  bp = (Header*)ap - 1;
  for(p = freep; !(bp > p && bp < p->s.ptr); p = p->s.ptr)
    if(p >= p->s.ptr && (bp > p || bp < p->s.ptr))
      break;
  if(bp + bp->s.size == p->s.ptr){
    bp->s.size += p->s.ptr->s.size;
 6c3:	03 72 04             	add    0x4(%edx),%esi
 6c6:	89 73 fc             	mov    %esi,-0x4(%ebx)
    bp->s.ptr = p->s.ptr->s.ptr;
 6c9:	8b 10                	mov    (%eax),%edx
 6cb:	8b 12                	mov    (%edx),%edx
 6cd:	89 53 f8             	mov    %edx,-0x8(%ebx)
  } else
    bp->s.ptr = p->s.ptr;
  if(p + p->s.size == bp){
 6d0:	8b 50 04             	mov    0x4(%eax),%edx
 6d3:	8d 34 d0             	lea    (%eax,%edx,8),%esi
 6d6:	39 f1                	cmp    %esi,%ecx
 6d8:	75 dd                	jne    6b7 <free+0x57>
    p->s.size += bp->s.size;
 6da:	03 53 fc             	add    -0x4(%ebx),%edx
    p->s.ptr = bp->s.ptr;
  } else
    p->s.ptr = bp;
  freep = p;
 6dd:	a3 c0 11 00 00       	mov    %eax,0x11c0
    bp->s.size += p->s.ptr->s.size;
    bp->s.ptr = p->s.ptr->s.ptr;
  } else
    bp->s.ptr = p->s.ptr;
  if(p + p->s.size == bp){
    p->s.size += bp->s.size;
 6e2:	89 50 04             	mov    %edx,0x4(%eax)
    p->s.ptr = bp->s.ptr;
 6e5:	8b 53 f8             	mov    -0x8(%ebx),%edx
 6e8:	89 10                	mov    %edx,(%eax)
  } else
    p->s.ptr = bp;
  freep = p;
}
 6ea:	5b                   	pop    %ebx
 6eb:	5e                   	pop    %esi
 6ec:	5f                   	pop    %edi
 6ed:	5d                   	pop    %ebp
 6ee:	c3                   	ret    
 6ef:	90                   	nop

000006f0 <malloc>:
  return freep;
}

void*
malloc(uint nbytes)
{
 6f0:	55                   	push   %ebp
 6f1:	89 e5                	mov    %esp,%ebp
 6f3:	57                   	push   %edi
 6f4:	56                   	push   %esi
 6f5:	53                   	push   %ebx
 6f6:	83 ec 0c             	sub    $0xc,%esp
  Header *p, *prevp;
  uint nunits;

  nunits = (nbytes + sizeof(Header) - 1)/sizeof(Header) + 1;
 6f9:	8b 45 08             	mov    0x8(%ebp),%eax
  if((prevp = freep) == 0){
 6fc:	8b 15 c0 11 00 00    	mov    0x11c0,%edx
malloc(uint nbytes)
{
  Header *p, *prevp;
  uint nunits;

  nunits = (nbytes + sizeof(Header) - 1)/sizeof(Header) + 1;
 702:	8d 78 07             	lea    0x7(%eax),%edi
 705:	c1 ef 03             	shr    $0x3,%edi
 708:	83 c7 01             	add    $0x1,%edi
  if((prevp = freep) == 0){
 70b:	85 d2                	test   %edx,%edx
 70d:	0f 84 a3 00 00 00    	je     7b6 <malloc+0xc6>
 713:	8b 02                	mov    (%edx),%eax
 715:	8b 48 04             	mov    0x4(%eax),%ecx
    base.s.ptr = freep = prevp = &base;
    base.s.size = 0;
  }
  for(p = prevp->s.ptr; ; prevp = p, p = p->s.ptr){
    if(p->s.size >= nunits){
 718:	39 cf                	cmp    %ecx,%edi
 71a:	76 74                	jbe    790 <malloc+0xa0>
 71c:	81 ff 00 10 00 00    	cmp    $0x1000,%edi
 722:	be 00 10 00 00       	mov    $0x1000,%esi
 727:	8d 1c fd 00 00 00 00 	lea    0x0(,%edi,8),%ebx
 72e:	0f 43 f7             	cmovae %edi,%esi
 731:	ba 00 80 00 00       	mov    $0x8000,%edx
 736:	81 ff ff 0f 00 00    	cmp    $0xfff,%edi
 73c:	0f 46 da             	cmovbe %edx,%ebx
 73f:	eb 10                	jmp    751 <malloc+0x61>
 741:	8d b4 26 00 00 00 00 	lea    0x0(%esi,%eiz,1),%esi
  nunits = (nbytes + sizeof(Header) - 1)/sizeof(Header) + 1;
  if((prevp = freep) == 0){
    base.s.ptr = freep = prevp = &base;
    base.s.size = 0;
  }
  for(p = prevp->s.ptr; ; prevp = p, p = p->s.ptr){
 748:	8b 02                	mov    (%edx),%eax
    if(p->s.size >= nunits){
 74a:	8b 48 04             	mov    0x4(%eax),%ecx
 74d:	39 cf                	cmp    %ecx,%edi
 74f:	76 3f                	jbe    790 <malloc+0xa0>
        p->s.size = nunits;
      }
      freep = prevp;
      return (void*)(p + 1);
    }
    if(p == freep)
 751:	39 05 c0 11 00 00    	cmp    %eax,0x11c0
 757:	89 c2                	mov    %eax,%edx
 759:	75 ed                	jne    748 <malloc+0x58>
  char *p;
  Header *hp;

  if(nu < 4096)
    nu = 4096;
  p = sbrk(nu * sizeof(Header));
 75b:	83 ec 0c             	sub    $0xc,%esp
 75e:	53                   	push   %ebx
 75f:	e8 76 fc ff ff       	call   3da <sbrk>
  if(p == (char*)-1)
 764:	83 c4 10             	add    $0x10,%esp
 767:	83 f8 ff             	cmp    $0xffffffff,%eax
 76a:	74 1c                	je     788 <malloc+0x98>
    return 0;
  hp = (Header*)p;
  hp->s.size = nu;
 76c:	89 70 04             	mov    %esi,0x4(%eax)
  free((void*)(hp + 1));
 76f:	83 ec 0c             	sub    $0xc,%esp
 772:	83 c0 08             	add    $0x8,%eax
 775:	50                   	push   %eax
 776:	e8 e5 fe ff ff       	call   660 <free>
  return freep;
 77b:	8b 15 c0 11 00 00    	mov    0x11c0,%edx
      }
      freep = prevp;
      return (void*)(p + 1);
    }
    if(p == freep)
      if((p = morecore(nunits)) == 0)
 781:	83 c4 10             	add    $0x10,%esp
 784:	85 d2                	test   %edx,%edx
 786:	75 c0                	jne    748 <malloc+0x58>
        return 0;
 788:	31 c0                	xor    %eax,%eax
 78a:	eb 1c                	jmp    7a8 <malloc+0xb8>
 78c:	8d 74 26 00          	lea    0x0(%esi,%eiz,1),%esi
    base.s.ptr = freep = prevp = &base;
    base.s.size = 0;
  }
  for(p = prevp->s.ptr; ; prevp = p, p = p->s.ptr){
    if(p->s.size >= nunits){
      if(p->s.size == nunits)
 790:	39 cf                	cmp    %ecx,%edi
 792:	74 1c                	je     7b0 <malloc+0xc0>
        prevp->s.ptr = p->s.ptr;
      else {
        p->s.size -= nunits;
 794:	29 f9                	sub    %edi,%ecx
 796:	89 48 04             	mov    %ecx,0x4(%eax)
        p += p->s.size;
 799:	8d 04 c8             	lea    (%eax,%ecx,8),%eax
        p->s.size = nunits;
 79c:	89 78 04             	mov    %edi,0x4(%eax)
      }
      freep = prevp;
 79f:	89 15 c0 11 00 00    	mov    %edx,0x11c0
      return (void*)(p + 1);
 7a5:	83 c0 08             	add    $0x8,%eax
    }
    if(p == freep)
      if((p = morecore(nunits)) == 0)
        return 0;
  }
}
 7a8:	8d 65 f4             	lea    -0xc(%ebp),%esp
 7ab:	5b                   	pop    %ebx
 7ac:	5e                   	pop    %esi
 7ad:	5f                   	pop    %edi
 7ae:	5d                   	pop    %ebp
 7af:	c3                   	ret    
    base.s.size = 0;
  }
  for(p = prevp->s.ptr; ; prevp = p, p = p->s.ptr){
    if(p->s.size >= nunits){
      if(p->s.size == nunits)
        prevp->s.ptr = p->s.ptr;
 7b0:	8b 08                	mov    (%eax),%ecx
 7b2:	89 0a                	mov    %ecx,(%edx)
 7b4:	eb e9                	jmp    79f <malloc+0xaf>
  Header *p, *prevp;
  uint nunits;

  nunits = (nbytes + sizeof(Header) - 1)/sizeof(Header) + 1;
  if((prevp = freep) == 0){
    base.s.ptr = freep = prevp = &base;
 7b6:	c7 05 c0 11 00 00 c4 	movl   $0x11c4,0x11c0
 7bd:	11 00 00 
 7c0:	c7 05 c4 11 00 00 c4 	movl   $0x11c4,0x11c4
 7c7:	11 00 00 
    base.s.size = 0;
 7ca:	b8 c4 11 00 00       	mov    $0x11c4,%eax
 7cf:	c7 05 c8 11 00 00 00 	movl   $0x0,0x11c8
 7d6:	00 00 00 
 7d9:	e9 3e ff ff ff       	jmp    71c <malloc+0x2c>
 7de:	66 90                	xchg   %ax,%ax

000007e0 <uthread_yield>:
  exit();
}

void 
uthread_yield(void)
{
 7e0:	55                   	push   %ebp
 7e1:	89 e5                	mov    %esp,%ebp
 7e3:	57                   	push   %edi
 7e4:	56                   	push   %esi
 7e5:	53                   	push   %ebx
 7e6:	83 ec 28             	sub    $0x28,%esp
  // switch alarm(0) to cancel thread switching while yielding 
  alarm(0);
 7e9:	6a 00                	push   $0x0
 7eb:	e8 1a fc ff ff       	call   40a <alarm>

  // if current thread is running (most cases), the thread didn't finisht its job so turn his state to RUNNABLE
  if (uthread_pool[c_uthread_index].state == RUNNING) {
 7f0:	a1 e0 13 00 00       	mov    0x13e0,%eax
 7f5:	83 c4 10             	add    $0x10,%esp
 7f8:	8d 14 40             	lea    (%eax,%eax,2),%edx
 7fb:	8d 14 d5 00 14 00 00 	lea    0x1400(,%edx,8),%edx
 802:	83 7a 10 01          	cmpl   $0x1,0x10(%edx)
 806:	0f 84 54 01 00 00    	je     960 <uthread_yield+0x180>
    uthread_pool[c_uthread_index].state = RUNNABLE;
  }

  // save current thread esp and ebp
  asm("movl %%esp, %0;" : "=r" (uthread_pool[c_uthread_index].esp));
 80c:	8d 04 40             	lea    (%eax,%eax,2),%eax
  asm("movl %%ebp, %0;" : "=r" (uthread_pool[c_uthread_index].ebp));

  // load the new thread

  // pick the next thread index
  c_uthread_index++;
 80f:	83 05 e0 13 00 00 01 	addl   $0x1,0x13e0
 816:	bb 10 14 00 00       	mov    $0x1410,%ebx
  if (uthread_pool[c_uthread_index].state == RUNNING) {
    uthread_pool[c_uthread_index].state = RUNNABLE;
  }

  // save current thread esp and ebp
  asm("movl %%esp, %0;" : "=r" (uthread_pool[c_uthread_index].esp));
 81b:	89 e2                	mov    %esp,%edx
 81d:	8d 04 c5 00 14 00 00 	lea    0x1400(,%eax,8),%eax

  // ************** lottery scheduler mechanism ******************* //

  int j, randomTicket;
  // update number of total tickets
  current_ticket_num = -1;
 824:	c7 05 b0 14 00 00 ff 	movl   $0xffffffff,0x14b0
 82b:	ff ff ff 
 82e:	89 de                	mov    %ebx,%esi
 830:	c6 45 e7 00          	movb   $0x0,-0x19(%ebp)
 834:	bf ff ff ff ff       	mov    $0xffffffff,%edi
 839:	b9 ff ff ff ff       	mov    $0xffffffff,%ecx
  if (uthread_pool[c_uthread_index].state == RUNNING) {
    uthread_pool[c_uthread_index].state = RUNNABLE;
  }

  // save current thread esp and ebp
  asm("movl %%esp, %0;" : "=r" (uthread_pool[c_uthread_index].esp));
 83e:	89 50 04             	mov    %edx,0x4(%eax)
  asm("movl %%ebp, %0;" : "=r" (uthread_pool[c_uthread_index].ebp));
 841:	89 ea                	mov    %ebp,%edx
 843:	89 50 08             	mov    %edx,0x8(%eax)
 846:	8d 76 00             	lea    0x0(%esi),%esi
 849:	8d bc 27 00 00 00 00 	lea    0x0(%edi,%eiz,1),%edi

  int j, randomTicket;
  // update number of total tickets
  current_ticket_num = -1;
  for(j = 0; j < MAX_THREADS; ++j) {
    if(uthread_pool[j].state != FREE && uthread_pool[j].state != SLEEP)
 850:	8b 06                	mov    (%esi),%eax
 852:	85 c0                	test   %eax,%eax
 854:	0f 95 c2             	setne  %dl
 857:	83 f8 03             	cmp    $0x3,%eax
 85a:	0f 95 c0             	setne  %al
 85d:	20 d0                	and    %dl,%al
 85f:	74 0a                	je     86b <uthread_yield+0x8b>
      current_ticket_num += uthread_pool[j].ntickets;
 861:	8b 7e 04             	mov    0x4(%esi),%edi
 864:	88 45 e7             	mov    %al,-0x19(%ebp)
 867:	01 cf                	add    %ecx,%edi
 869:	89 f9                	mov    %edi,%ecx
 86b:	83 c6 18             	add    $0x18,%esi
  // ************** lottery scheduler mechanism ******************* //

  int j, randomTicket;
  // update number of total tickets
  current_ticket_num = -1;
  for(j = 0; j < MAX_THREADS; ++j) {
 86e:	81 fe b8 14 00 00    	cmp    $0x14b8,%esi
 874:	75 da                	jne    850 <uthread_yield+0x70>
 876:	80 7d e7 00          	cmpb   $0x0,-0x19(%ebp)
 87a:	0f 85 ec 00 00 00    	jne    96c <uthread_yield+0x18c>

unsigned long randstate = 1;
unsigned int
rand()
{
  randstate = randstate * 1664525 + 1013904223;
 880:	69 05 b4 11 00 00 0d 	imul   $0x19660d,0x11b4,%eax
 887:	66 19 00 
    if(uthread_pool[j].state != FREE && uthread_pool[j].state != SLEEP)
      current_ticket_num += uthread_pool[j].ntickets;
  }

  // generate a random number between 0 and current_ticket_num
  randomTicket = rand() % current_ticket_num;
 88a:	31 d2                	xor    %edx,%edx

  printf(1,"current_ticket_num=%d\n", current_ticket_num);
 88c:	83 ec 04             	sub    $0x4,%esp
 88f:	51                   	push   %ecx
 890:	68 0d 0d 00 00       	push   $0xd0d
 895:	6a 01                	push   $0x1

unsigned long randstate = 1;
unsigned int
rand()
{
  randstate = randstate * 1664525 + 1013904223;
 897:	05 5f f3 6e 3c       	add    $0x3c6ef35f,%eax
 89c:	a3 b4 11 00 00       	mov    %eax,0x11b4
    if(uthread_pool[j].state != FREE && uthread_pool[j].state != SLEEP)
      current_ticket_num += uthread_pool[j].ntickets;
  }

  // generate a random number between 0 and current_ticket_num
  randomTicket = rand() % current_ticket_num;
 8a1:	f7 f1                	div    %ecx
 8a3:	89 d6                	mov    %edx,%esi

  printf(1,"current_ticket_num=%d\n", current_ticket_num);
 8a5:	e8 16 fc ff ff       	call   4c0 <printf>
  printf(1,"randomTicket=%d\n", randomTicket);
 8aa:	83 c4 0c             	add    $0xc,%esp
 8ad:	56                   	push   %esi
 8ae:	68 24 0d 00 00       	push   $0xd24
 8b3:	6a 01                	push   $0x1
 8b5:	e8 06 fc ff ff       	call   4c0 <printf>

  // set the choosen order thread to run
  choosen = randomTicket / NTICKET;
 8ba:	89 f0                	mov    %esi,%eax
 8bc:	ba 67 66 66 66       	mov    $0x66666667,%edx
 8c1:	c1 fe 1f             	sar    $0x1f,%esi
 8c4:	f7 ea                	imul   %edx
 8c6:	83 c4 10             	add    $0x10,%esp

  // pick the index of choosen thread
  int chooseCount = -1;
 8c9:	b9 ff ff ff ff       	mov    $0xffffffff,%ecx
  for(j = 0; j < MAX_THREADS; ++j) {
 8ce:	31 c0                	xor    %eax,%eax

  printf(1,"current_ticket_num=%d\n", current_ticket_num);
  printf(1,"randomTicket=%d\n", randomTicket);

  // set the choosen order thread to run
  choosen = randomTicket / NTICKET;
 8d0:	d1 fa                	sar    %edx
 8d2:	29 f2                	sub    %esi,%edx
 8d4:	89 15 ac 14 00 00    	mov    %edx,0x14ac
 8da:	eb 0f                	jmp    8eb <uthread_yield+0x10b>
 8dc:	8d 74 26 00          	lea    0x0(%esi,%eiz,1),%esi

  // pick the index of choosen thread
  int chooseCount = -1;
  for(j = 0; j < MAX_THREADS; ++j) {
 8e0:	83 c0 01             	add    $0x1,%eax
 8e3:	83 c3 18             	add    $0x18,%ebx
 8e6:	83 f8 07             	cmp    $0x7,%eax
 8e9:	74 15                	je     900 <uthread_yield+0x120>
    if(uthread_pool[j].state == RUNNABLE) {
 8eb:	83 3b 02             	cmpl   $0x2,(%ebx)
 8ee:	75 f0                	jne    8e0 <uthread_yield+0x100>
      chooseCount++;
 8f0:	83 c1 01             	add    $0x1,%ecx
      if (choosen == chooseCount)
 8f3:	39 ca                	cmp    %ecx,%edx
 8f5:	75 e9                	jne    8e0 <uthread_yield+0x100>
 8f7:	89 f6                	mov    %esi,%esi
 8f9:	8d bc 27 00 00 00 00 	lea    0x0(%edi,%eiz,1),%edi
        break;
    }
  }

  // set current thread to the lottery chosen one
  c_uthread_index = j;
 900:	a3 e0 13 00 00       	mov    %eax,0x13e0

  // ****************************************************************** //

  // current switched thread is move to RUNNING mode, next to be execute
  uthread_pool[c_uthread_index].state = RUNNING;
 905:	8d 04 40             	lea    (%eax,%eax,2),%eax
 908:	8d 04 c5 00 14 00 00 	lea    0x1400(,%eax,8),%eax


  // if esp is null, thread is running its first time, so we have to load a functio to it 
  if(uthread_pool[c_uthread_index].esp == 0) {
 90f:	8b 50 04             	mov    0x4(%eax),%edx
  c_uthread_index = j;

  // ****************************************************************** //

  // current switched thread is move to RUNNING mode, next to be execute
  uthread_pool[c_uthread_index].state = RUNNING;
 912:	c7 40 10 01 00 00 00 	movl   $0x1,0x10(%eax)


  // if esp is null, thread is running its first time, so we have to load a functio to it 
  if(uthread_pool[c_uthread_index].esp == 0) {
 919:	85 d2                	test   %edx,%edx
 91b:	75 23                	jne    940 <uthread_yield+0x160>
    asm("movl %0, %%esp;" : : "r" (uthread_pool[c_uthread_index].stack + STACK_SIZE - 3*sizeof(int)));
 91d:	8b 40 0c             	mov    0xc(%eax),%eax
 920:	05 f4 0f 00 00       	add    $0xff4,%eax
 925:	89 c4                	mov    %eax,%esp
    asm("movl %0, %%ebp;" : : "r" (uthread_pool[c_uthread_index].stack + STACK_SIZE - 3*sizeof(int)));
 927:	89 c5                	mov    %eax,%ebp
    // jump to execute function to run the thread own function
    asm("jmp *%0;" : : "r" (execute_thread));
 929:	b8 f0 0b 00 00       	mov    $0xbf0,%eax
 92e:	ff e0                	jmp    *%eax
    asm("movl %0, %%ebp;" : : "r" (uthread_pool[c_uthread_index].ebp));

    // reset alarm
    alarm(UTHREAD_QUANTA);
  }
}
 930:	8d 65 f4             	lea    -0xc(%ebp),%esp
 933:	5b                   	pop    %ebx
 934:	5e                   	pop    %esi
 935:	5f                   	pop    %edi
 936:	5d                   	pop    %ebp
 937:	c3                   	ret    
 938:	90                   	nop
 939:	8d b4 26 00 00 00 00 	lea    0x0(%esi,%eiz,1),%esi
    // jump to execute function to run the thread own function
    asm("jmp *%0;" : : "r" (execute_thread));
  } 
  else  {
    // restore thread stack
    asm("movl %0, %%esp;" : : "r" (uthread_pool[c_uthread_index].esp));
 940:	89 d4                	mov    %edx,%esp
    asm("movl %0, %%ebp;" : : "r" (uthread_pool[c_uthread_index].ebp));
 942:	8b 40 08             	mov    0x8(%eax),%eax
 945:	89 c5                	mov    %eax,%ebp

    // reset alarm
    alarm(UTHREAD_QUANTA);
 947:	83 ec 0c             	sub    $0xc,%esp
 94a:	6a 05                	push   $0x5
 94c:	e8 b9 fa ff ff       	call   40a <alarm>
 951:	83 c4 10             	add    $0x10,%esp
  }
}
 954:	8d 65 f4             	lea    -0xc(%ebp),%esp
 957:	5b                   	pop    %ebx
 958:	5e                   	pop    %esi
 959:	5f                   	pop    %edi
 95a:	5d                   	pop    %ebp
 95b:	c3                   	ret    
 95c:	8d 74 26 00          	lea    0x0(%esi,%eiz,1),%esi
  // switch alarm(0) to cancel thread switching while yielding 
  alarm(0);

  // if current thread is running (most cases), the thread didn't finisht its job so turn his state to RUNNABLE
  if (uthread_pool[c_uthread_index].state == RUNNING) {
    uthread_pool[c_uthread_index].state = RUNNABLE;
 960:	c7 42 10 02 00 00 00 	movl   $0x2,0x10(%edx)
 967:	e9 a0 fe ff ff       	jmp    80c <uthread_yield+0x2c>
 96c:	89 3d b0 14 00 00    	mov    %edi,0x14b0
 972:	e9 09 ff ff ff       	jmp    880 <uthread_yield+0xa0>
 977:	89 f6                	mov    %esi,%esi
 979:	8d bc 27 00 00 00 00 	lea    0x0(%edi,%eiz,1),%edi

00000980 <rand>:

unsigned long randstate = 1;
unsigned int
rand()
{
  randstate = randstate * 1664525 + 1013904223;
 980:	69 05 b4 11 00 00 0d 	imul   $0x19660d,0x11b4,%eax
 987:	66 19 00 
//***************************************************************************************//

unsigned long randstate = 1;
unsigned int
rand()
{
 98a:	55                   	push   %ebp
 98b:	89 e5                	mov    %esp,%ebp
  randstate = randstate * 1664525 + 1013904223;
  return randstate;
}
 98d:	5d                   	pop    %ebp

unsigned long randstate = 1;
unsigned int
rand()
{
  randstate = randstate * 1664525 + 1013904223;
 98e:	05 5f f3 6e 3c       	add    $0x3c6ef35f,%eax
 993:	a3 b4 11 00 00       	mov    %eax,0x11b4
  return randstate;
}
 998:	c3                   	ret    
 999:	8d b4 26 00 00 00 00 	lea    0x0(%esi,%eiz,1),%esi

000009a0 <uthread_init>:
  uthread_exit();
}

int
 uthread_init()
{
 9a0:	55                   	push   %ebp
 9a1:	89 e5                	mov    %esp,%ebp
 9a3:	83 ec 10             	sub    $0x10,%esp
  printf(1, "** INIT USER LEVEL THREAD **\n");
 9a6:	68 35 0d 00 00       	push   $0xd35
 9ab:	6a 01                	push   $0x1
 9ad:	e8 0e fb ff ff       	call   4c0 <printf>
 9b2:	b8 10 14 00 00       	mov    $0x1410,%eax
 9b7:	83 c4 10             	add    $0x10,%esp
 9ba:	8d b6 00 00 00 00    	lea    0x0(%esi),%esi
  // set all threads state to FREE - init pool
  int i;
  for(i = 0; i < MAX_THREADS; ++i) {
    uthread_pool[i].state = FREE;
 9c0:	c7 00 00 00 00 00    	movl   $0x0,(%eax)
    uthread_pool[i].ntickets = NTICKET;
 9c6:	c7 40 04 05 00 00 00 	movl   $0x5,0x4(%eax)
 9cd:	83 c0 18             	add    $0x18,%eax
 uthread_init()
{
  printf(1, "** INIT USER LEVEL THREAD **\n");
  // set all threads state to FREE - init pool
  int i;
  for(i = 0; i < MAX_THREADS; ++i) {
 9d0:	3d b8 14 00 00       	cmp    $0x14b8,%eax
 9d5:	75 e9                	jne    9c0 <uthread_init+0x20>
  uthread_pool[c_uthread_index].stack = 0; 
  // main thread is ready to run
  uthread_pool[c_uthread_index].state = RUNNING;

  // register the SIGALRM to uthread_yield func
  if(signal(SIGALRM, uthread_yield) != 0) {
 9d7:	83 ec 08             	sub    $0x8,%esp
  for(i = 0; i < MAX_THREADS; ++i) {
    uthread_pool[i].state = FREE;
    uthread_pool[i].ntickets = NTICKET;
  }

  next_tid = 1;
 9da:	c7 05 a8 14 00 00 01 	movl   $0x1,0x14a8
 9e1:	00 00 00 

  // initialize main thread
  c_uthread_index = 0;
 9e4:	c7 05 e0 13 00 00 00 	movl   $0x0,0x13e0
 9eb:	00 00 00 
  uthread_pool[c_uthread_index].stack = 0; 
  // main thread is ready to run
  uthread_pool[c_uthread_index].state = RUNNING;

  // register the SIGALRM to uthread_yield func
  if(signal(SIGALRM, uthread_yield) != 0) {
 9ee:	68 e0 07 00 00       	push   $0x7e0
 9f3:	6a 0e                	push   $0xe
  next_tid = 1;

  // initialize main thread
  c_uthread_index = 0;
  // set tid and stack to null
  uthread_pool[c_uthread_index].tid = 0;
 9f5:	c7 05 00 14 00 00 00 	movl   $0x0,0x1400
 9fc:	00 00 00 
  uthread_pool[c_uthread_index].stack = 0; 
 9ff:	c7 05 0c 14 00 00 00 	movl   $0x0,0x140c
 a06:	00 00 00 
  // main thread is ready to run
  uthread_pool[c_uthread_index].state = RUNNING;
 a09:	c7 05 10 14 00 00 01 	movl   $0x1,0x1410
 a10:	00 00 00 

  // register the SIGALRM to uthread_yield func
  if(signal(SIGALRM, uthread_yield) != 0) {
 a13:	e8 da f9 ff ff       	call   3f2 <signal>
 a18:	83 c4 10             	add    $0x10,%esp
 a1b:	85 c0                	test   %eax,%eax
    // case signal error
    return -1;
 a1d:	ba ff ff ff ff       	mov    $0xffffffff,%edx
  uthread_pool[c_uthread_index].stack = 0; 
  // main thread is ready to run
  uthread_pool[c_uthread_index].state = RUNNING;

  // register the SIGALRM to uthread_yield func
  if(signal(SIGALRM, uthread_yield) != 0) {
 a22:	75 0f                	jne    a33 <uthread_init+0x93>
    // case signal error
    return -1;
  }

  // execute the alarm syscall with UTHREAD_QUANTA
  alarm(UTHREAD_QUANTA);
 a24:	83 ec 0c             	sub    $0xc,%esp
 a27:	6a 05                	push   $0x5
 a29:	e8 dc f9 ff ff       	call   40a <alarm>

  return 0;
 a2e:	83 c4 10             	add    $0x10,%esp
 a31:	31 d2                	xor    %edx,%edx
}
 a33:	89 d0                	mov    %edx,%eax
 a35:	c9                   	leave  
 a36:	c3                   	ret    
 a37:	89 f6                	mov    %esi,%esi
 a39:	8d bc 27 00 00 00 00 	lea    0x0(%edi,%eiz,1),%edi

00000a40 <uthread_create>:

int 
uthread_create(void (*func)(void *), void* arg)
{
 a40:	55                   	push   %ebp
 a41:	89 e5                	mov    %esp,%ebp
 a43:	56                   	push   %esi
 a44:	53                   	push   %ebx
  printf(1, "start thread creation \n");
 a45:	83 ec 08             	sub    $0x8,%esp
 a48:	68 53 0d 00 00       	push   $0xd53
 a4d:	6a 01                	push   $0x1
 a4f:	e8 6c fa ff ff       	call   4c0 <printf>

  // local thread pool index
  int i;

  // disable thread switching
  alarm(0);
 a54:	c7 04 24 00 00 00 00 	movl   $0x0,(%esp)
 a5b:	e8 aa f9 ff ff       	call   40a <alarm>

  printf(1, "uthread_create after alarm(0) \n");
 a60:	5b                   	pop    %ebx
 a61:	5e                   	pop    %esi
 a62:	68 80 0d 00 00       	push   $0xd80
 a67:	6a 01                	push   $0x1
 a69:	e8 52 fa ff ff       	call   4c0 <printf>
 a6e:	ba 10 14 00 00       	mov    $0x1410,%edx
 a73:	83 c4 10             	add    $0x10,%esp

  // search for free thread to load
  for(i = 0; i < MAX_THREADS; ++i) {
 a76:	31 c0                	xor    %eax,%eax
 a78:	90                   	nop
 a79:	8d b4 26 00 00 00 00 	lea    0x0(%esi,%eiz,1),%esi
    if (uthread_pool[i].state == FREE) {
 a80:	8b 0a                	mov    (%edx),%ecx
 a82:	85 c9                	test   %ecx,%ecx
 a84:	74 2a                	je     ab0 <uthread_create+0x70>
  alarm(0);

  printf(1, "uthread_create after alarm(0) \n");

  // search for free thread to load
  for(i = 0; i < MAX_THREADS; ++i) {
 a86:	83 c0 01             	add    $0x1,%eax
 a89:	83 c2 18             	add    $0x18,%edx
 a8c:	83 f8 07             	cmp    $0x7,%eax
 a8f:	75 ef                	jne    a80 <uthread_create+0x40>
    }
  }

  // case no free threads available
  // enable thread switching
  alarm(UTHREAD_QUANTA);
 a91:	83 ec 0c             	sub    $0xc,%esp
 a94:	6a 05                	push   $0x5
 a96:	e8 6f f9 ff ff       	call   40a <alarm>
  return -1;
 a9b:	83 c4 10             	add    $0x10,%esp
  // enable thread switching
  printf(1, "creation method: returning.. \n");
  alarm(UTHREAD_QUANTA);

  return uthread_pool[i].tid;
}
 a9e:	8d 65 f8             	lea    -0x8(%ebp),%esp
  }

  // case no free threads available
  // enable thread switching
  alarm(UTHREAD_QUANTA);
  return -1;
 aa1:	b8 ff ff ff ff       	mov    $0xffffffff,%eax
  // enable thread switching
  printf(1, "creation method: returning.. \n");
  alarm(UTHREAD_QUANTA);

  return uthread_pool[i].tid;
}
 aa6:	5b                   	pop    %ebx
 aa7:	5e                   	pop    %esi
 aa8:	5d                   	pop    %ebp
 aa9:	c3                   	ret    
 aaa:	8d b6 00 00 00 00    	lea    0x0(%esi),%esi
  alarm(UTHREAD_QUANTA);
  return -1;

load_t:
  // next free tid to assign
  uthread_pool[i].tid = next_tid;
 ab0:	8b 15 a8 14 00 00    	mov    0x14a8,%edx
 ab6:	8d 1c 40             	lea    (%eax,%eax,2),%ebx
  // update next tid
  next_tid++;
  // allocate stack for thread and returns the stack top to .stack field
  uthread_pool[i].stack = malloc(STACK_SIZE);
 ab9:	83 ec 0c             	sub    $0xc,%esp
 abc:	68 00 10 00 00       	push   $0x1000
  alarm(UTHREAD_QUANTA);
  return -1;

load_t:
  // next free tid to assign
  uthread_pool[i].tid = next_tid;
 ac1:	c1 e3 03             	shl    $0x3,%ebx
 ac4:	89 93 00 14 00 00    	mov    %edx,0x1400(%ebx)
  // update next tid
  next_tid++;
 aca:	83 c2 01             	add    $0x1,%edx
 acd:	89 15 a8 14 00 00    	mov    %edx,0x14a8
  // allocate stack for thread and returns the stack top to .stack field
  uthread_pool[i].stack = malloc(STACK_SIZE);
 ad3:	e8 18 fc ff ff       	call   6f0 <malloc>

  // load thread execute function to stack with arguments and return value
  *( (int*)(uthread_pool[i].stack + STACK_SIZE - 3*sizeof(int)) ) = 0; 
  *( (int*)(uthread_pool[i].stack + STACK_SIZE - 2*sizeof(int)) ) = (int)func;
 ad8:	8b 55 08             	mov    0x8(%ebp),%edx
  next_tid++;
  // allocate stack for thread and returns the stack top to .stack field
  uthread_pool[i].stack = malloc(STACK_SIZE);

  // load thread execute function to stack with arguments and return value
  *( (int*)(uthread_pool[i].stack + STACK_SIZE - 3*sizeof(int)) ) = 0; 
 adb:	c7 80 f4 0f 00 00 00 	movl   $0x0,0xff4(%eax)
 ae2:	00 00 00 
  // next free tid to assign
  uthread_pool[i].tid = next_tid;
  // update next tid
  next_tid++;
  // allocate stack for thread and returns the stack top to .stack field
  uthread_pool[i].stack = malloc(STACK_SIZE);
 ae5:	89 83 0c 14 00 00    	mov    %eax,0x140c(%ebx)
  *( (int*)(uthread_pool[i].stack + STACK_SIZE - 3*sizeof(int)) ) = 0; 
  *( (int*)(uthread_pool[i].stack + STACK_SIZE - 2*sizeof(int)) ) = (int)func;
  *( (int*)(uthread_pool[i].stack + STACK_SIZE - sizeof(int)) ) = (int)arg;

  // set thread state to RUNNABLE, ready to run
  uthread_pool[i].state = RUNNABLE;
 aeb:	c7 83 10 14 00 00 02 	movl   $0x2,0x1410(%ebx)
 af2:	00 00 00 

  // set esp and ebp to null, while thread is not in RUNNING state yet
  uthread_pool[i].esp = 0;
 af5:	c7 83 04 14 00 00 00 	movl   $0x0,0x1404(%ebx)
 afc:	00 00 00 
  uthread_pool[i].ebp = 0;
 aff:	c7 83 08 14 00 00 00 	movl   $0x0,0x1408(%ebx)
 b06:	00 00 00 
  // allocate stack for thread and returns the stack top to .stack field
  uthread_pool[i].stack = malloc(STACK_SIZE);

  // load thread execute function to stack with arguments and return value
  *( (int*)(uthread_pool[i].stack + STACK_SIZE - 3*sizeof(int)) ) = 0; 
  *( (int*)(uthread_pool[i].stack + STACK_SIZE - 2*sizeof(int)) ) = (int)func;
 b09:	89 90 f8 0f 00 00    	mov    %edx,0xff8(%eax)
  *( (int*)(uthread_pool[i].stack + STACK_SIZE - sizeof(int)) ) = (int)arg;
 b0f:	8b 55 0c             	mov    0xc(%ebp),%edx
 b12:	89 90 fc 0f 00 00    	mov    %edx,0xffc(%eax)
  uthread_pool[i].esp = 0;
  uthread_pool[i].ebp = 0;
  

  // enable thread switching
  printf(1, "creation method: returning.. \n");
 b18:	58                   	pop    %eax
 b19:	5a                   	pop    %edx
 b1a:	68 a0 0d 00 00       	push   $0xda0
 b1f:	6a 01                	push   $0x1
 b21:	e8 9a f9 ff ff       	call   4c0 <printf>
  alarm(UTHREAD_QUANTA);
 b26:	c7 04 24 05 00 00 00 	movl   $0x5,(%esp)
 b2d:	e8 d8 f8 ff ff       	call   40a <alarm>

  return uthread_pool[i].tid;
 b32:	8b 83 00 14 00 00    	mov    0x1400(%ebx),%eax
 b38:	83 c4 10             	add    $0x10,%esp
}
 b3b:	8d 65 f8             	lea    -0x8(%ebp),%esp
 b3e:	5b                   	pop    %ebx
 b3f:	5e                   	pop    %esi
 b40:	5d                   	pop    %ebp
 b41:	c3                   	ret    
 b42:	8d b4 26 00 00 00 00 	lea    0x0(%esi,%eiz,1),%esi
 b49:	8d bc 27 00 00 00 00 	lea    0x0(%edi,%eiz,1),%edi

00000b50 <uthread_exit>:

void 
uthread_exit(void)
{
 b50:	55                   	push   %ebp
 b51:	89 e5                	mov    %esp,%ebp
 b53:	53                   	push   %ebx
 b54:	83 ec 10             	sub    $0x10,%esp

  int i;

  // disable thread switching
  alarm(0);
 b57:	6a 00                	push   $0x0
 b59:	e8 ac f8 ff ff       	call   40a <alarm>

  // deallocate thread memory
  if (uthread_pool[c_uthread_index].stack != 0) {
 b5e:	a1 e0 13 00 00       	mov    0x13e0,%eax
 b63:	83 c4 10             	add    $0x10,%esp
 b66:	8d 14 40             	lea    (%eax,%eax,2),%edx
 b69:	8b 14 d5 0c 14 00 00 	mov    0x140c(,%edx,8),%edx
 b70:	85 d2                	test   %edx,%edx
 b72:	74 11                	je     b85 <uthread_exit+0x35>
    free(uthread_pool[c_uthread_index].stack);
 b74:	83 ec 0c             	sub    $0xc,%esp
 b77:	52                   	push   %edx
 b78:	e8 e3 fa ff ff       	call   660 <free>
 b7d:	a1 e0 13 00 00       	mov    0x13e0,%eax
 b82:	83 c4 10             	add    $0x10,%esp
  }

  // deallocate thread from thread pool
  uthread_pool[c_uthread_index].state = FREE;
 b85:	8d 04 40             	lea    (%eax,%eax,2),%eax
 b88:	bb 10 14 00 00       	mov    $0x1410,%ebx
 b8d:	c7 04 c5 10 14 00 00 	movl   $0x0,0x1410(,%eax,8)
 b94:	00 00 00 00 
 b98:	89 d8                	mov    %ebx,%eax
 b9a:	eb 0e                	jmp    baa <uthread_exit+0x5a>
 b9c:	8d 74 26 00          	lea    0x0(%esi,%eiz,1),%esi
 ba0:	83 c0 18             	add    $0x18,%eax

  // if any thread is waiting for current thread, get them back to RUNNABLE state
  for(i = 0; i < MAX_THREADS; ++i) {
 ba3:	3d b8 14 00 00       	cmp    $0x14b8,%eax
 ba8:	74 26                	je     bd0 <uthread_exit+0x80>
    if (uthread_pool[i].state == SLEEP) {
 baa:	83 38 03             	cmpl   $0x3,(%eax)
 bad:	75 f1                	jne    ba0 <uthread_exit+0x50>
      uthread_pool[i].state = RUNNABLE;
 baf:	c7 00 02 00 00 00    	movl   $0x2,(%eax)
 bb5:	eb e9                	jmp    ba0 <uthread_exit+0x50>
 bb7:	89 f6                	mov    %esi,%esi
 bb9:	8d bc 27 00 00 00 00 	lea    0x0(%edi,%eiz,1),%edi
 bc0:	83 c3 18             	add    $0x18,%ebx

  // Check if there are any other uthread_pool that can be switched to
  for(i = 0; i < MAX_THREADS; ++i) {
    if (uthread_pool[i].state != FREE) {
      // found thread that is eligible to run, yield
      uthread_yield();
 bc3:	e8 18 fc ff ff       	call   7e0 <uthread_yield>
      uthread_pool[i].state = RUNNABLE;
    }
  }

  // Check if there are any other uthread_pool that can be switched to
  for(i = 0; i < MAX_THREADS; ++i) {
 bc8:	81 fb b8 14 00 00    	cmp    $0x14b8,%ebx
 bce:	74 11                	je     be1 <uthread_exit+0x91>
    if (uthread_pool[i].state != FREE) {
 bd0:	8b 03                	mov    (%ebx),%eax
 bd2:	85 c0                	test   %eax,%eax
 bd4:	75 ea                	jne    bc0 <uthread_exit+0x70>
 bd6:	83 c3 18             	add    $0x18,%ebx
      uthread_pool[i].state = RUNNABLE;
    }
  }

  // Check if there are any other uthread_pool that can be switched to
  for(i = 0; i < MAX_THREADS; ++i) {
 bd9:	81 fb b8 14 00 00    	cmp    $0x14b8,%ebx
 bdf:	75 ef                	jne    bd0 <uthread_exit+0x80>
      // found thread that is eligible to run, yield
      uthread_yield();
    }
  }
  // no ready to run threads, exit
  exit();
 be1:	e8 6c f7 ff ff       	call   352 <exit>
 be6:	8d 76 00             	lea    0x0(%esi),%esi
 be9:	8d bc 27 00 00 00 00 	lea    0x0(%edi,%eiz,1),%edi

00000bf0 <execute_thread>:
int current_ticket_num;
// choosen lottery thread
int choosen;

static void 
execute_thread(void (*start_func)(void *), void* arg) {
 bf0:	55                   	push   %ebp
 bf1:	89 e5                	mov    %esp,%ebp
 bf3:	83 ec 10             	sub    $0x10,%esp
  printf(1, "+++RUN THREAD+++ \n");
 bf6:	68 6b 0d 00 00       	push   $0xd6b
 bfb:	6a 01                	push   $0x1
 bfd:	e8 be f8 ff ff       	call   4c0 <printf>
  alarm(UTHREAD_QUANTA);
 c02:	c7 04 24 05 00 00 00 	movl   $0x5,(%esp)
 c09:	e8 fc f7 ff ff       	call   40a <alarm>
  start_func(arg);
 c0e:	58                   	pop    %eax
 c0f:	ff 75 0c             	pushl  0xc(%ebp)
 c12:	ff 55 08             	call   *0x8(%ebp)
  uthread_exit();
 c15:	e8 36 ff ff ff       	call   b50 <uthread_exit>
 c1a:	8d b6 00 00 00 00    	lea    0x0(%esi),%esi

00000c20 <uthred_self>:

int 
uthred_self(void)
{
  // return current running thread tid
  return uthread_pool[c_uthread_index].tid;
 c20:	a1 e0 13 00 00       	mov    0x13e0,%eax
  }
}

int 
uthred_self(void)
{
 c25:	55                   	push   %ebp
 c26:	89 e5                	mov    %esp,%ebp
  // return current running thread tid
  return uthread_pool[c_uthread_index].tid;
 c28:	8d 04 40             	lea    (%eax,%eax,2),%eax
}
 c2b:	5d                   	pop    %ebp

int 
uthred_self(void)
{
  // return current running thread tid
  return uthread_pool[c_uthread_index].tid;
 c2c:	8b 04 c5 00 14 00 00 	mov    0x1400(,%eax,8),%eax
}
 c33:	c3                   	ret    
 c34:	8d b6 00 00 00 00    	lea    0x0(%esi),%esi
 c3a:	8d bf 00 00 00 00    	lea    0x0(%edi),%edi

00000c40 <uthred_join>:

int  
uthred_join(int tid)
{
 c40:	55                   	push   %ebp
 c41:	89 e5                	mov    %esp,%ebp
 c43:	53                   	push   %ebx
 c44:	83 ec 04             	sub    $0x4,%esp
 c47:	8b 5d 08             	mov    0x8(%ebp),%ebx
  int i;

  // if tid is not declared yet or is a negative number, error occured, return
  if(tid >= next_tid || tid < 0) {
 c4a:	39 1d a8 14 00 00    	cmp    %ebx,0x14a8
 c50:	7e 60                	jle    cb2 <uthred_join+0x72>
 c52:	89 d8                	mov    %ebx,%eax
 c54:	c1 e8 1f             	shr    $0x1f,%eax
 c57:	84 c0                	test   %al,%al
 c59:	75 57                	jne    cb2 <uthred_join+0x72>
  }

loop:

  // disable thread switching
  alarm(0);
 c5b:	83 ec 0c             	sub    $0xc,%esp
 c5e:	6a 00                	push   $0x0
 c60:	e8 a5 f7 ff ff       	call   40a <alarm>
 c65:	b8 00 14 00 00       	mov    $0x1400,%eax
 c6a:	83 c4 10             	add    $0x10,%esp
 c6d:	8d 76 00             	lea    0x0(%esi),%esi

  // run over all threads
  for(i = 0; i < MAX_THREADS; ++i) {
    // searching for a thread with the relevant tid
    if(uthread_pool[i].tid == tid) {
 c70:	3b 18                	cmp    (%eax),%ebx
 c72:	74 24                	je     c98 <uthred_join+0x58>
 c74:	83 c0 18             	add    $0x18,%eax

  // disable thread switching
  alarm(0);

  // run over all threads
  for(i = 0; i < MAX_THREADS; ++i) {
 c77:	3d a8 14 00 00       	cmp    $0x14a8,%eax
 c7c:	75 f2                	jne    c70 <uthred_join+0x30>

    }
  }

  // the joined thread is not alive anyway, reset clock
  alarm(UTHREAD_QUANTA);
 c7e:	83 ec 0c             	sub    $0xc,%esp
 c81:	6a 05                	push   $0x5
 c83:	e8 82 f7 ff ff       	call   40a <alarm>

  return 0;
 c88:	83 c4 10             	add    $0x10,%esp
 c8b:	31 c0                	xor    %eax,%eax
}
 c8d:	8b 5d fc             	mov    -0x4(%ebp),%ebx
 c90:	c9                   	leave  
 c91:	c3                   	ret    
 c92:	8d b6 00 00 00 00    	lea    0x0(%esi),%esi
  // run over all threads
  for(i = 0; i < MAX_THREADS; ++i) {
    // searching for a thread with the relevant tid
    if(uthread_pool[i].tid == tid) {
      // put current running thread to sleep
      uthread_pool[c_uthread_index].state = SLEEP;
 c98:	a1 e0 13 00 00       	mov    0x13e0,%eax
 c9d:	8d 04 40             	lea    (%eax,%eax,2),%eax
 ca0:	c7 04 c5 10 14 00 00 	movl   $0x3,0x1410(,%eax,8)
 ca7:	03 00 00 00 
      // let other thread to run 
      uthread_yield();
 cab:	e8 30 fb ff ff       	call   7e0 <uthread_yield>

      // if thread still alive, loop over the join procedure again
      goto loop;
 cb0:	eb a9                	jmp    c5b <uthred_join+0x1b>
{
  int i;

  // if tid is not declared yet or is a negative number, error occured, return
  if(tid >= next_tid || tid < 0) {
    return -1;
 cb2:	b8 ff ff ff ff       	mov    $0xffffffff,%eax
 cb7:	eb d4                	jmp    c8d <uthred_join+0x4d>
